(ioptparse
Values
p0
(dp1
S'bSkipLambdaIndex'
p2
S''
p3
sS'methods'
p4
(lp5
S'TI'
p6
asS'decimal'
p7
I5
sS'prefix'
p8
S'*.*/ti00[1-2]'
p9
sS'uncorr'
p10
S'dhdl'
p11
sS'resultfilename'
p12
S'results'
p13
sS'suffix'
p14
S'out'
p15
sS'lv_names'
p16
(lp17
S'all'
p18
asS'verbose'
p19
I00
sS'temperature'
p20
F298.15
sS'ddFs'
p21
(lp22
(dp23
g6
cnumpy.core.multiarray
scalar
p24
(cnumpy
dtype
p25
(S'f8'
p26
I0
I1
tp27
Rp28
(I3
S'<'
p29
NNNI-1
I-1
I0
tp30
bS'\x00\x00\x00\x00\x00\x00\x00\x00'
p31
tp32
Rp33
sa(dp34
g6
g24
(g28
S'\x13L\xf6o\xc8\x17g?'
p35
tp36
Rp37
sa(dp38
g6
g24
(g28
S'\x13L\xf6o\xc8\x17g?'
p39
tp40
Rp41
sasS'overlap'
p42
I00
sS'fraction'
p43
F1.0
sS'units'
p44
S'(kcal/mol)'
p45
sS'snap_size'
p46
(lp47
F2.0
asS'df_allk'
p48
cnumpy.core.multiarray
_reconstruct
p49
(cnumpy
ndarray
p50
(I0
tp51
S'b'
p52
tp53
Rp54
(I1
(I20
tp55
g25
(S'O8'
p56
I0
I1
tp57
Rp58
(I3
S'|'
p59
NNNI-1
I-1
I63
tp60
bI00
(lp61
(dp62
S'TI'
p63
g24
(g28
S'E[\r\x15\xa1\xaf\xe3?'
p64
tp65
Rp66
sa(dp67
g63
g24
(g28
S'rha\xa9\x11}\xe3?'
p68
tp69
Rp70
sa(dp71
g63
g24
(g28
S'|\x00\tW*^\xe3?'
p72
tp73
Rp74
sa(dp75
g63
g24
(g28
S'\xb1I\xe98C6\xe3?'
p76
tp77
Rp78
sa(dp79
g63
g24
(g28
S'X\x0c\xa8\xf2K\x0e\xe3?'
p80
tp81
Rp82
sa(dp83
g63
g24
(g28
S"\x10'_\xdf\xe0\xe1\xe2?"
p84
tp85
Rp86
sa(dp87
g63
g24
(g28
S']u\x1b7\xd2\xb9\xe2?'
p88
tp89
Rp90
sa(dp91
g63
g24
(g28
S'\x18I\xbd\xc1W\xa0\xe2?'
p92
tp93
Rp94
sa(dp95
g63
g24
(g28
S'\x80\x9e\xa7\xe6@m\xe2?'
p96
tp97
Rp98
sa(dp99
g63
g24
(g28
S"x.\x89'\x8c>\xe2?"
p100
tp101
Rp102
sa(dp103
g63
g24
(g28
S'p\xcd\x85G\x01!\xe2?'
p104
tp105
Rp106
sa(dp107
g63
g24
(g28
S'\xeb\xd6\x1f\xbca\xf1\xe1?'
p108
tp109
Rp110
sa(dp111
g63
g24
(g28
S'\xcf%\xdbu\x9d\xc0\xe1?'
p112
tp113
Rp114
sa(dp115
g63
g24
(g28
S'89\x1cO\xda\x9d\xe1?'
p116
tp117
Rp118
sa(dp119
g63
g24
(g28
S'<)\xab\xfa\xf2w\xe1?'
p120
tp121
Rp122
sa(dp123
g63
g24
(g28
S'\xa4\xe3\xbau\x17\\\xe1?'
p124
tp125
Rp126
sa(dp127
g63
g24
(g28
S'\x1a/zN\x1c7\xe1?'
p128
tp129
Rp130
sa(dp131
g63
g24
(g28
S'"\xfd\x82\x9b\x96\x05\xe1?'
p132
tp133
Rp134
sa(dp135
g63
g24
(g28
S'M\xcf}\x89\x1c\xee\xe0?'
p136
tp137
Rp138
sa(dp139
g63
g24
(g28
S'\xb6\xd7\x99\x86\xc7\xc0\xe0?'
p140
tp141
Rp142
satp143
bsS'breakdown'
p144
I00
sS'datafile_directory'
p145
S'/scratch/txsaureus/jorge.gonzalez2/Relative_free_energy_mutation_lysozyme/decharging/complex/decharge'
p146
sS'bIgnoreWL'
p147
I00
sS'init_with'
p148
S'BAR'
p149
sS'dFs'
p150
(lp151
(dp152
g6
I0
sa(dp153
g6
I0
sa(dp154
g6
g24
(g28
S'\x04\x9b\xa8\x05|\xbe&@'
p155
tp156
Rp157
sasS'output_directory'
p158
S'.'
p159
sS'beta'
p160
F0.40359852979970595
sS'ddf_allk'
p161
g49
(g50
(I0
tp162
g52
tp163
Rp164
(I1
(I20
tp165
g58
I00
(lp166
(dp167
g63
g24
(g28
S'|\xf7v]\x9a;;?'
p168
tp169
Rp170
sa(dp171
g63
g24
(g28
S'\x1f-b\xff\xf6\xb9:?'
p172
tp173
Rp174
sa(dp175
g63
g24
(g28
S'\xd0\xf4"\x94\x9c\x04;?'
p176
tp177
Rp178
sa(dp179
g63
g24
(g28
S'\xba\xd4\x9d:\x87l<?'
p180
tp181
Rp182
sa(dp183
g63
g24
(g28
S'=\x88\xdb.\xaf`@?'
p184
tp185
Rp186
sa(dp187
g63
g24
(g28
S'\x0c\xf25I\xee\xbb@?'
p188
tp189
Rp190
sa(dp191
g63
g24
(g28
S'\x91H\xc1\xe2\xf8\xaf=?'
p192
tp193
Rp194
sa(dp195
g63
g24
(g28
S'\x81g\xea\xc2Ed;?'
p196
tp197
Rp198
sa(dp199
g63
g24
(g28
S'\xdf\x91I\x8d\x10\x19>?'
p200
tp201
Rp202
sa(dp203
g63
g24
(g28
S'\xed\xf3.\x0e<t>?'
p204
tp205
Rp206
sa(dp207
g63
g24
(g28
S'\x89\r@\xd3\x88_;?'
p208
tp209
Rp210
sa(dp211
g63
g24
(g28
S'[\xb7\x8b\xd5,\xf8;?'
p212
tp213
Rp214
sa(dp215
g63
g24
(g28
S'2\xc3\xb4\x9f"\x07;?'
p216
tp217
Rp218
sa(dp219
g63
g24
(g28
S'\x1d\xb5\x8c\xbb\x9e\x05=?'
p220
tp221
Rp222
sa(dp223
g63
g24
(g28
S"\xd0\xbe\xc0\xa7'w>?"
p224
tp225
Rp226
sa(dp227
g63
g24
(g28
S'\x026g\xf2\xe9,A?'
p228
tp229
Rp230
sa(dp231
g63
g24
(g28
S'|y\x9b\xf2\x18\rA?'
p232
tp233
Rp234
sa(dp235
g63
g24
(g28
S'BRH\x93\xb1\xb7<?'
p236
tp237
Rp238
sa(dp239
g63
g24
(g28
S'Bj/\xbd\xaer<?'
p240
tp241
Rp242
sa(dp243
g63
g24
(g28
S'\xbb\xac\xb4T\xa6\xaa;?'
p244
tp245
Rp246
satp247
bsS'when_analyzed'
p248
S'Tue Aug 13 10:00:17 2024'
p249
sS'uncorr_threshold'
p250
I1
sS'beta_report'
p251
F0.40359852979970595
sS'relative_tolerance'
p252
F1e-10
sS'bExpanded'
p253
I00
sS'bCFM'
p254
I00
sS'equiltime'
p255
F2000.0
sS'backward'
p256
I00
sS'bForwrev'
p257
I0
sS'software'
p258
S'AMBER'
p259
sb.