(ioptparse
Values
p0
(dp1
S'bSkipLambdaIndex'
p2
S''
p3
sS'methods'
p4
(lp5
S'TI'
p6
asS'decimal'
p7
I5
sS'prefix'
p8
S'*.*/ti00[1-5]'
p9
sS'uncorr'
p10
S'dhdl'
p11
sS'resultfilename'
p12
S'results'
p13
sS'suffix'
p14
S'out'
p15
sS'lv_names'
p16
(lp17
S'all'
p18
asS'verbose'
p19
I00
sS'temperature'
p20
F298.15
sS'ddFs'
p21
(lp22
(dp23
g6
cnumpy.core.multiarray
scalar
p24
(cnumpy
dtype
p25
(S'f8'
p26
I0
I1
tp27
Rp28
(I3
S'<'
p29
NNNI-1
I-1
I0
tp30
bS'\x00\x00\x00\x00\x00\x00\x00\x00'
p31
tp32
Rp33
sa(dp34
g6
g24
(g28
S'\xe5\xe2\xacB\xee.\x81?'
p35
tp36
Rp37
sa(dp38
g6
g24
(g28
S'\xe5\xe2\xacB\xee.\x81?'
p39
tp40
Rp41
sasS'overlap'
p42
I00
sS'fraction'
p43
F1.0
sS'units'
p44
S'(kcal/mol)'
p45
sS'snap_size'
p46
(lp47
F2.0
asS'df_allk'
p48
cnumpy.core.multiarray
_reconstruct
p49
(cnumpy
ndarray
p50
(I0
tp51
S'b'
p52
tp53
Rp54
(I1
(I20
tp55
g25
(S'O8'
p56
I0
I1
tp57
Rp58
(I3
S'|'
p59
NNNI-1
I-1
I63
tp60
bI00
(lp61
(dp62
S'TI'
p63
g24
(g28
S'W\xcc&\xe3!\xb3\xbe?'
p64
tp65
Rp66
sa(dp67
g63
g24
(g28
S'`s\x88\xa9\xd6\x08\xc0?'
p68
tp69
Rp70
sa(dp71
g63
g24
(g28
S'\\\x94{)<\x94\xc0?'
p72
tp73
Rp74
sa(dp75
g63
g24
(g28
S'`2 <\xc8\xe4\xc0?'
p76
tp77
Rp78
sa(dp79
g63
g24
(g28
S'\xdf\x11\xb4[\x08\xff\xc1?'
p80
tp81
Rp82
sa(dp83
g63
g24
(g28
S'U\xc0?\xd1\xa3k\xc3?'
p84
tp85
Rp86
sa(dp87
g63
g24
(g28
S'%\xb2\x13+w}\xc4?'
p88
tp89
Rp90
sa(dp91
g63
g24
(g28
S'1\x8e+\x19;\xbd\xc5?'
p92
tp93
Rp94
sa(dp95
g63
g24
(g28
S'x\xd1\x13\xf2\x0c\x8b\xc6?'
p96
tp97
Rp98
sa(dp99
g63
g24
(g28
S'U\x07\xb9\x86\x17\xf3\xc6?'
p100
tp101
Rp102
sa(dp103
g63
g24
(g28
S'Y\x7f\xc2\xba8\x9c\xc7?'
p104
tp105
Rp106
sa(dp107
g63
g24
(g28
S'?E4\xd0\x82\xc7\xc7?'
p108
tp109
Rp110
sa(dp111
g63
g24
(g28
S'Ih\xb9\xfdz\xae\xc7?'
p112
tp113
Rp114
sa(dp115
g63
g24
(g28
S'<]\xf7\x9a\\J\xc7?'
p116
tp117
Rp118
sa(dp119
g63
g24
(g28
S'Z\n\x8b\x9eW\xb1\xc6?'
p120
tp121
Rp122
sa(dp123
g63
g24
(g28
S'\xda\x0f\x1e\x1dXs\xc6?'
p124
tp125
Rp126
sa(dp127
g63
g24
(g28
S'\xea,t\xbb\xc0q\xc5?'
p128
tp129
Rp130
sa(dp131
g63
g24
(g28
S'\xa9b\xbbJ,\x08\xc5?'
p132
tp133
Rp134
sa(dp135
g63
g24
(g28
S'[\xb1\xc9\xc2P\xa8\xc4?'
p136
tp137
Rp138
sa(dp139
g63
g24
(g28
S'\xda\x08o\x89\xf9{\xc3?'
p140
tp141
Rp142
satp143
bsS'breakdown'
p144
I00
sS'datafile_directory'
p145
S'/home/jhernandez/Relative_free_energy_calculations_lysozyme/vdw/complex/vdw'
p146
sS'bIgnoreWL'
p147
I00
sS'init_with'
p148
S'BAR'
p149
sS'dFs'
p150
(lp151
(dp152
g6
I0
sa(dp153
g6
I0
sa(dp154
g6
g24
(g28
S'\x9e\x07\xc7\x91\xe6\xc1\t@'
p155
tp156
Rp157
sasS'output_directory'
p158
S'.'
p159
sS'beta'
p160
F0.40359852979970595
sS'ddf_allk'
p161
g49
(g50
(I0
tp162
g52
tp163
Rp164
(I1
(I20
tp165
g58
I00
(lp166
(dp167
g63
g24
(g28
S'(\x14\x15@\xb8\xcfB?'
p168
tp169
Rp170
sa(dp171
g63
g24
(g28
S'\x124\xe0rL\x12C?'
p172
tp173
Rp174
sa(dp175
g63
g24
(g28
S'\xd2\x9b\xa1\x06|EE?'
p176
tp177
Rp178
sa(dp179
g63
g24
(g28
S'\x905^|\xe0\x95G?'
p180
tp181
Rp182
sa(dp183
g63
g24
(g28
S'I\xb5\xf6\xf3|\xe4H?'
p184
tp185
Rp186
sa(dp187
g63
g24
(g28
S'O\xe3i\xd1\xae\x0bH?'
p188
tp189
Rp190
sa(dp191
g63
g24
(g28
S'B\xdf\x9e\x92\xce\x1aM?'
p192
tp193
Rp194
sa(dp195
g63
g24
(g28
S'\xbcK\xcb;\xe1_Q?'
p196
tp197
Rp198
sa(dp199
g63
g24
(g28
S'\x13\x93\xd3\xdd\xf9\x84Q?'
p200
tp201
Rp202
sa(dp203
g63
g24
(g28
S'\xdfK\x01;\xb6\xd4Q?'
p204
tp205
Rp206
sa(dp207
g63
g24
(g28
S'MB.\xb3\xbbHR?'
p208
tp209
Rp210
sa(dp211
g63
g24
(g28
S'\xd1,x\xe6\xd6gT?'
p212
tp213
Rp214
sa(dp215
g63
g24
(g28
S'\xd0\xc3"\xab\x8f\xf6X?'
p216
tp217
Rp218
sa(dp219
g63
g24
(g28
S'\xd1\x9aH\x0b\x82\xfcZ?'
p220
tp221
Rp222
sa(dp223
g63
g24
(g28
S'\x00\x86j2\x120Z?'
p224
tp225
Rp226
sa(dp227
g63
g24
(g28
S'\x0f6@\xe5\xbf\x9cY?'
p228
tp229
Rp230
sa(dp231
g63
g24
(g28
S'\x91\xe0+\x9ct\xdf[?'
p232
tp233
Rp234
sa(dp235
g63
g24
(g28
S"\x8e'\xf2\x81K\t^?"
p236
tp237
Rp238
sa(dp239
g63
g24
(g28
S'\xf8\x05\xb0\xca\x11\x8ca?'
p240
tp241
Rp242
sa(dp243
g63
g24
(g28
S'\x90z\x08\x05\x86\xa7d?'
p244
tp245
Rp246
satp247
bsS'when_analyzed'
p248
S'Wed Aug 14 21:10:17 2024'
p249
sS'uncorr_threshold'
p250
I1
sS'beta_report'
p251
F0.40359852979970595
sS'relative_tolerance'
p252
F1e-10
sS'bExpanded'
p253
I00
sS'bCFM'
p254
I00
sS'equiltime'
p255
F2000.0
sS'backward'
p256
I00
sS'bForwrev'
p257
I0
sS'software'
p258
S'AMBER'
p259
sb.